; Function Attrs: mustprogress uwtable
define hidden void @_ZN4cvc58internal6theory2bv14NodeBitblaster6bbTermENS0_12NodeTemplateILb0EEERSt6vectorINS4_ILb1EEESaIS7_EE(ptr noundef nonnull align 8 dereferenceable(6112) %this, ptr nocapture noundef readonly %node, ptr noundef nonnull align 8 dereferenceable(24) %bits) unnamed_addr #3 align 2 personality ptr @__gxx_personality_v0 {
entry:
  %agg.tmp = alloca %"class.cvc5::internal::NodeTemplate", align 8
  %agg.tmp2 = alloca %"class.cvc5::internal::NodeTemplate", align 8
  %agg.tmp6 = alloca %"class.cvc5::internal::NodeTemplate", align 8
  %agg.tmp9 = alloca %"class.cvc5::internal::NodeTemplate", align 8
  %0 = load ptr, ptr %node, align 8
  store ptr %0, ptr %agg.tmp, align 8
  %call = call noundef zeroext i1 @_ZNK4cvc58internal6theory2bv11TBitblasterINS0_12NodeTemplateILb1EEEE9hasBBTermENS4_ILb0EEE(ptr noundef nonnull align 8 dereferenceable(5976) %this, ptr noundef nonnull %agg.tmp)
  br i1 %call, label %if.then, label %if.end

if.then:                                          ; preds = %entry
  %1 = load ptr, ptr %node, align 8
  store ptr %1, ptr %agg.tmp2, align 8
  call void @_ZNK4cvc58internal6theory2bv11TBitblasterINS0_12NodeTemplateILb1EEEE9getBBTermENS4_ILb0EEERSt6vectorIS5_SaIS5_EE(ptr noundef nonnull align 8 dereferenceable(5976) %this, ptr noundef nonnull %agg.tmp2, ptr noundef nonnull align 8 dereferenceable(24) %bits)
  br label %return

if.end:                                           ; preds = %entry
  %d_termBBStrategies = getelementptr inbounds i8, ptr %this, i64 136
  %2 = load ptr, ptr %node, align 8
  %d_kind.i = getelementptr inbounds i8, ptr %2, i64 8
  %bf.load.i = load i16, ptr %d_kind.i, align 8
  %bf.clear.i = and i16 %bf.load.i, 1023
  %idxprom = zext nneg i16 %bf.clear.i to i64
  %arrayidx = getelementptr inbounds [365 x ptr], ptr %d_termBBStrategies, i64 0, i64 %idxprom
  %3 = load ptr, ptr %arrayidx, align 8
  store ptr %2, ptr %agg.tmp6, align 8
  call void %3(ptr noundef nonnull %agg.tmp6, ptr noundef nonnull align 8 dereferenceable(24) %bits, ptr noundef nonnull %this)
  %4 = load ptr, ptr %node, align 8
  store ptr %4, ptr %agg.tmp9, align 8
  %vtable = load ptr, ptr %this, align 8
  %vfn = getelementptr inbounds i8, ptr %vtable, i64 80
  %5 = load ptr, ptr %vfn, align 8
  call void %5(ptr noundef nonnull align 8 dereferenceable(6112) %this, ptr noundef nonnull %agg.tmp9, ptr noundef nonnull align 8 dereferenceable(24) %bits)
  br label %return

return:                                           ; preds = %if.end, %if.then
  ret void
}